; Function Attrs: mustprogress nofree norecurse nosync nounwind willreturn memory(read, argmem: readwrite, inaccessiblemem: none) uwtable
define dso_local void @Curl_http_method(ptr noundef readonly captures(none) %0, ptr noundef readonly captures(none) %1, ptr noundef writeonly captures(none) initializes((0, 8)) %2, ptr noundef writeonly captures(none) initializes((0, 4)) %3) local_unnamed_addr #5 {
  %5 = getelementptr inbounds nuw i8, ptr %0, i64 4874
  %6 = load i8, ptr %5, align 2, !tbaa !92
  %7 = getelementptr inbounds nuw i8, ptr %1, i64 928
  %8 = load ptr, ptr %7, align 8, !tbaa !93
  %9 = getelementptr inbounds nuw i8, ptr %8, i64 140
  %10 = load i32, ptr %9, align 4, !tbaa !94
  %11 = and i32 %10, -1073741817
  %.not = icmp eq i32 %11, 0
  br i1 %.not, label %16, label %12

12:                                               ; preds = %4
  %13 = getelementptr inbounds nuw i8, ptr %0, i64 4876
  %14 = load i32, ptr %13, align 4
  %15 = and i32 %14, 524288
  %.not12 = icmp eq i32 %15, 0
  %spec.select = select i1 %.not12, i8 %6, i8 4
  br label %16

16:                                               ; preds = %12, %4
  %.010.shrunk = phi i8 [ %6, %4 ], [ %spec.select, %12 ]
  %17 = getelementptr inbounds nuw i8, ptr %0, i64 2040
  %18 = load ptr, ptr %17, align 8, !tbaa !78
  %.not13 = icmp eq ptr %18, null
  br i1 %.not13, label %19, label %26

19:                                               ; preds = %16
  %20 = getelementptr inbounds nuw i8, ptr %0, i64 449
  %21 = load i32, ptr %20, align 1
  %22 = and i32 %21, 131072
  %.not14 = icmp eq i32 %22, 0
  br i1 %.not14, label %23, label %26

23:                                               ; preds = %19
  %switch.tableidx = add i8 %.010.shrunk, -1
  %24 = icmp ult i8 %switch.tableidx, 5
  br i1 %24, label %switch.lookup, label %26

switch.lookup:                                    ; preds = %23
  %25 = zext nneg i8 %switch.tableidx to i64
  %switch.gep = getelementptr inbounds nuw [5 x ptr], ptr @switch.table.Curl_http_method, i64 0, i64 %25
  %switch.load = load ptr, ptr %switch.gep, align 8
  br label %26

26:                                               ; preds = %23, %switch.lookup, %19, %16
  %.0 = phi ptr [ %18, %16 ], [ @.str.24, %19 ], [ %switch.load, %switch.lookup ], [ @.str.27, %23 ]
  %.010 = zext i8 %.010.shrunk to i32
  store ptr %.0, ptr %2, align 8, !tbaa !78
  store i32 %.010, ptr %3, align 4, !tbaa !113
  ret void
}